; ModuleID = '54/1823.c'
source_filename = "54/1823.c"
target datalayout = "e-m:e-p270:32:32-p271:32:32-p272:64:64-i64:64-f80:128-n8:16:32:64-S128"
target triple = "x86_64-pc-linux-gnu"

@.str = private unnamed_addr constant [5 x i8] c"%d%d\00", align 1
@.str.1 = private unnamed_addr constant [3 x i8] c"%d\00", align 1

; Function Attrs: noinline nounwind uwtable
define dso_local i32 @main() #0 {
  %1 = alloca i32, align 4
  %2 = alloca i32, align 4
  %3 = alloca i32, align 4
  %4 = alloca i32, align 4
  %5 = alloca i32, align 4
  %6 = alloca i32, align 4
  %7 = alloca i32, align 4
  store i32 0, i32* %1, align 4
  store i32 0, i32* %5, align 4
  %8 = call i32 (i8*, ...) @__isoc99_scanf(i8* getelementptr inbounds ([5 x i8], [5 x i8]* @.str, i64 0, i64 0), i32* %2, i32* %3)
  store i32 1, i32* %4, align 4
  br label %9

9:                                                ; preds = %65, %0
  %10 = load i32, i32* %5, align 4
  %11 = load i32, i32* %2, align 4
  %12 = icmp ne i32 %10, %11
  br i1 %12, label %13, label %68

13:                                               ; preds = %9
  %14 = load i32, i32* %4, align 4
  store i32 %14, i32* %7, align 4
  store i32 0, i32* %5, align 4
  store i32 1, i32* %6, align 4
  br label %15

15:                                               ; preds = %61, %13
  %16 = load i32, i32* %6, align 4
  %17 = load i32, i32* %2, align 4
  %18 = icmp sle i32 %16, %17
  br i1 %18, label %19, label %64

19:                                               ; preds = %15
  %20 = load i32, i32* %6, align 4
  %21 = load i32, i32* %2, align 4
  %22 = icmp slt i32 %20, %21
  br i1 %22, label %23, label %43

23:                                               ; preds = %19
  %24 = load i32, i32* %7, align 4
  %25 = load i32, i32* %2, align 4
  %26 = srem i32 %24, %25
  %27 = load i32, i32* %3, align 4
  %28 = icmp eq i32 %26, %27
  br i1 %28, label %29, label %41

29:                                               ; preds = %23
  %30 = load i32, i32* %7, align 4
  %31 = load i32, i32* %7, align 4
  %32 = load i32, i32* %2, align 4
  %33 = sdiv i32 %31, %32
  %34 = sub nsw i32 %30, %33
  %35 = load i32, i32* %7, align 4
  %36 = load i32, i32* %2, align 4
  %37 = srem i32 %35, %36
  %38 = sub nsw i32 %34, %37
  store i32 %38, i32* %7, align 4
  %39 = load i32, i32* %5, align 4
  %40 = add nsw i32 %39, 1
  store i32 %40, i32* %5, align 4
  br label %42

41:                                               ; preds = %23
  br label %64

42:                                               ; preds = %29
  br label %60

43:                                               ; preds = %19
  %44 = load i32, i32* %7, align 4
  %45 = load i32, i32* %2, align 4
  %46 = icmp sle i32 %44, %45
  br i1 %46, label %47, label %48

47:                                               ; preds = %43
  br label %64

48:                                               ; preds = %43
  %49 = load i32, i32* %7, align 4
  %50 = load i32, i32* %2, align 4
  %51 = srem i32 %49, %50
  %52 = load i32, i32* %3, align 4
  %53 = icmp ne i32 %51, %52
  br i1 %53, label %54, label %55

54:                                               ; preds = %48
  br label %64

55:                                               ; preds = %48
  %56 = load i32, i32* %5, align 4
  %57 = add nsw i32 %56, 1
  store i32 %57, i32* %5, align 4
  br label %58

58:                                               ; preds = %55
  br label %59

59:                                               ; preds = %58
  br label %60

60:                                               ; preds = %59, %42
  br label %61

61:                                               ; preds = %60
  %62 = load i32, i32* %6, align 4
  %63 = add nsw i32 %62, 1
  store i32 %63, i32* %6, align 4
  br label %15

64:                                               ; preds = %54, %47, %41, %15
  br label %65

65:                                               ; preds = %64
  %66 = load i32, i32* %4, align 4
  %67 = add nsw i32 %66, 1
  store i32 %67, i32* %4, align 4
  br label %9

68:                                               ; preds = %9
  %69 = load i32, i32* %4, align 4
  %70 = sub nsw i32 %69, 1
  %71 = call i32 (i8*, ...) @printf(i8* getelementptr inbounds ([3 x i8], [3 x i8]* @.str.1, i64 0, i64 0), i32 %70)
  ret i32 0
}

declare dso_local i32 @__isoc99_scanf(i8*, ...) #1

declare dso_local i32 @printf(i8*, ...) #1


!llvm.module.flags = !{!0}
!llvm.ident = !{!1}

!0 = !{i32 1, !"wchar_size", i32 4}
!1 = !{!"clang version 10.0.0-4ubuntu1 "}
